target datalayout = "e-m:e-p270:32:32-p271:32:32-p272:64:64-i64:64-i128:128-f80:128-n8:16:32:64-S128"
target triple = "x86_64-pc-linux-gnu"

; Function Attrs: nounwind uwtable
define internal zeroext i1 @Check_Integer_Character(i32 noundef %0, ptr noundef %1) #0 {
  %3 = alloca i32, align 4
  %4 = alloca ptr, align 8
  store i32 %0, ptr %3, align 4, !tbaa !10
  store ptr %1, ptr %4, align 8, !tbaa !9
  store ptr null, ptr %4, align 8, !tbaa !9
  %5 = call ptr @__ctype_b_loc() #10
  %6 = load ptr, ptr %5, align 8, !tbaa !26
  %7 = load i32, ptr %3, align 4, !tbaa !10
  %8 = sext i32 %7 to i64
  %9 = getelementptr inbounds i16, ptr %6, i64 %8
  %10 = load i16, ptr %9, align 2, !tbaa !28
  %11 = zext i16 %10 to i32
  %12 = and i32 %11, 2048
  %13 = icmp ne i32 %12, 0
  br i1 %13, label %17, label %14

14:                                               ; preds = %2
  %15 = load i32, ptr %3, align 4, !tbaa !10
  %16 = icmp eq i32 %15, 45
  br label %17

17:                                               ; preds = %14, %2
  %18 = phi i1 [ true, %2 ], [ %16, %14 ]
  %19 = select i1 %18, i32 1, i32 0
  %20 = icmp ne i32 %19, 0
  ret i1 %20
}