; Function Attrs: mustprogress nofree nosync nounwind willreturn memory(read, inaccessiblemem: none) uwtable
define internal zeroext i1 @Check_Integer_Character(i32 noundef %0, ptr readnone captures(none) %1) #3 {
  %3 = tail call ptr @__ctype_b_loc() #15
  %4 = load ptr, ptr %3, align 8, !tbaa !18
  %5 = sext i32 %0 to i64
  %6 = getelementptr inbounds i16, ptr %4, i64 %5
  %7 = load i16, ptr %6, align 2, !tbaa !21
  %8 = and i16 %7, 2048
  %9 = icmp ne i16 %8, 0
  %10 = icmp eq i32 %0, 45
  %11 = or i1 %10, %9
  ret i1 %11
}